; ModuleID = '10/2310.c'
source_filename = "10/2310.c"
target datalayout = "e-m:e-p270:32:32-p271:32:32-p272:64:64-i64:64-f80:128-n8:16:32:64-S128"
target triple = "x86_64-pc-linux-gnu"

@n = common dso_local global i32 0, align 4
@a = common dso_local global [30 x i32] zeroinitializer, align 16
@.str = private unnamed_addr constant [3 x i8] c"%d\00", align 1

; Function Attrs: noinline nounwind uwtable
define dso_local i32 @max(i32 %0, i32 %1) #0 {
  %3 = alloca i32, align 4
  %4 = alloca i32, align 4
  %5 = alloca i32, align 4
  store i32 %0, i32* %4, align 4
  store i32 %1, i32* %5, align 4
  %6 = load i32, i32* %4, align 4
  %7 = load i32, i32* %5, align 4
  %8 = icmp sge i32 %6, %7
  br i1 %8, label %9, label %11

9:                                                ; preds = %2
  %10 = load i32, i32* %4, align 4
  store i32 %10, i32* %3, align 4
  br label %13

11:                                               ; preds = %2
  %12 = load i32, i32* %5, align 4
  store i32 %12, i32* %3, align 4
  br label %13

13:                                               ; preds = %11, %9
  %14 = load i32, i32* %3, align 4
  ret i32 %14
}

; Function Attrs: noinline nounwind uwtable
define dso_local i32 @shot(i32 %0, i32 %1) #0 {
  %3 = alloca i32, align 4
  %4 = alloca i32, align 4
  %5 = alloca i32, align 4
  store i32 %0, i32* %4, align 4
  store i32 %1, i32* %5, align 4
  %6 = load i32, i32* %4, align 4
  %7 = load i32, i32* @n, align 4
  %8 = icmp eq i32 %6, %7
  br i1 %8, label %9, label %18

9:                                                ; preds = %2
  %10 = load i32, i32* %4, align 4
  %11 = sext i32 %10 to i64
  %12 = getelementptr inbounds [30 x i32], [30 x i32]* @a, i64 0, i64 %11
  %13 = load i32, i32* %12, align 4
  %14 = load i32, i32* %5, align 4
  %15 = icmp sle i32 %13, %14
  br i1 %15, label %16, label %17

16:                                               ; preds = %9
  store i32 1, i32* %3, align 4
  br label %44

17:                                               ; preds = %9
  store i32 0, i32* %3, align 4
  br label %44

18:                                               ; preds = %2
  %19 = load i32, i32* %4, align 4
  %20 = sext i32 %19 to i64
  %21 = getelementptr inbounds [30 x i32], [30 x i32]* @a, i64 0, i64 %20
  %22 = load i32, i32* %21, align 4
  %23 = load i32, i32* %5, align 4
  %24 = icmp sgt i32 %22, %23
  br i1 %24, label %25, label %30

25:                                               ; preds = %18
  %26 = load i32, i32* %4, align 4
  %27 = add nsw i32 %26, 1
  %28 = load i32, i32* %5, align 4
  %29 = call i32 @shot(i32 %27, i32 %28)
  store i32 %29, i32* %3, align 4
  br label %44

30:                                               ; preds = %18
  %31 = load i32, i32* %4, align 4
  %32 = add nsw i32 %31, 1
  %33 = load i32, i32* %5, align 4
  %34 = call i32 @shot(i32 %32, i32 %33)
  %35 = load i32, i32* %4, align 4
  %36 = add nsw i32 %35, 1
  %37 = load i32, i32* %4, align 4
  %38 = sext i32 %37 to i64
  %39 = getelementptr inbounds [30 x i32], [30 x i32]* @a, i64 0, i64 %38
  %40 = load i32, i32* %39, align 4
  %41 = call i32 @shot(i32 %36, i32 %40)
  %42 = add nsw i32 %41, 1
  %43 = call i32 @max(i32 %34, i32 %42)
  store i32 %43, i32* %3, align 4
  br label %44

44:                                               ; preds = %30, %25, %17, %16
  %45 = load i32, i32* %3, align 4
  ret i32 %45
}

; Function Attrs: noinline nounwind uwtable
define dso_local i32 @main() #0 {
  %1 = alloca i32, align 4
  %2 = alloca i32, align 4
  %3 = alloca i32, align 4
  store i32 0, i32* %1, align 4
  store i32 0, i32* %3, align 4
  %4 = call i32 (i8*, ...) @__isoc99_scanf(i8* getelementptr inbounds ([3 x i8], [3 x i8]* @.str, i64 0, i64 0), i32* @n)
  store i32 1, i32* %2, align 4
  br label %5

5:                                                ; preds = %14, %0
  %6 = load i32, i32* %2, align 4
  %7 = load i32, i32* @n, align 4
  %8 = icmp sle i32 %6, %7
  br i1 %8, label %9, label %17

9:                                                ; preds = %5
  %10 = load i32, i32* %2, align 4
  %11 = sext i32 %10 to i64
  %12 = getelementptr inbounds [30 x i32], [30 x i32]* @a, i64 0, i64 %11
  %13 = call i32 (i8*, ...) @__isoc99_scanf(i8* getelementptr inbounds ([3 x i8], [3 x i8]* @.str, i64 0, i64 0), i32* %12)
  br label %14

14:                                               ; preds = %9
  %15 = load i32, i32* %2, align 4
  %16 = add nsw i32 %15, 1
  store i32 %16, i32* %2, align 4
  br label %5

17:                                               ; preds = %5
  %18 = call i32 @shot(i32 1, i32 9999)
  store i32 %18, i32* %3, align 4
  %19 = load i32, i32* %3, align 4
  %20 = call i32 (i8*, ...) @printf(i8* getelementptr inbounds ([3 x i8], [3 x i8]* @.str, i64 0, i64 0), i32 %19)
  ret i32 0
}

declare dso_local i32 @__isoc99_scanf(i8*, ...) #1

declare dso_local i32 @printf(i8*, ...) #1


!llvm.module.flags = !{!0}
!llvm.ident = !{!1}

!0 = !{i32 1, !"wchar_size", i32 4}
!1 = !{!"clang version 10.0.0-4ubuntu1 "}
