; ModuleID = 'source-C-CXX/9/2310.c'
source_filename = "source-C-CXX/9/2310.c"
target datalayout = "e-m:e-p270:32:32-p271:32:32-p272:64:64-i64:64-f80:128-n8:16:32:64-S128"
target triple = "x86_64-pc-linux-gnu"

@n = dso_local global i32 0, align 4
@a = dso_local global [30 x i32] zeroinitializer, align 16
@.str = private unnamed_addr constant [3 x i8] c"%d\00", align 1

; Function Attrs: mustprogress nofree norecurse nosync nounwind readnone sspstrong uwtable willreturn
define dso_local i32 @max(i32 %0, i32 %1) local_unnamed_addr #0 {
  %3 = icmp slt i32 %0, %1
  %4 = select i1 %3, i32 %1, i32 %0
  ret i32 %4
}

; Function Attrs: nofree nosync nounwind readonly sspstrong uwtable
define dso_local i32 @shot(i32 %0, i32 %1) local_unnamed_addr #1 {
  %3 = load i32, i32* @n, align 4, !tbaa !5
  %4 = icmp eq i32 %3, %0
  br i1 %4, label %7, label %5

5:                                                ; preds = %2
  %6 = sext i32 %0 to i64
  br label %14

7:                                                ; preds = %19, %2
  %8 = phi i32 [ %0, %2 ], [ %3, %19 ]
  %9 = sext i32 %8 to i64
  %10 = getelementptr inbounds [30 x i32], [30 x i32]* @a, i64 0, i64 %9
  %11 = load i32, i32* %10, align 4, !tbaa !5
  %12 = icmp sle i32 %11, %1
  %13 = zext i1 %12 to i32
  br label %23

14:                                               ; preds = %5, %19
  %15 = phi i64 [ %6, %5 ], [ %20, %19 ]
  %16 = getelementptr inbounds [30 x i32], [30 x i32]* @a, i64 0, i64 %15
  %17 = load i32, i32* %16, align 4, !tbaa !5
  %18 = icmp sgt i32 %17, %1
  br i1 %18, label %19, label %25

19:                                               ; preds = %14
  %20 = add nsw i64 %15, 1
  %21 = trunc i64 %20 to i32
  %22 = icmp eq i32 %3, %21
  br i1 %22, label %7, label %14

23:                                               ; preds = %7, %25
  %24 = phi i32 [ %32, %25 ], [ %13, %7 ]
  ret i32 %24

25:                                               ; preds = %14
  %26 = trunc i64 %15 to i32
  %27 = add nsw i32 %26, 1
  %28 = tail call i32 @shot(i32 %27, i32 %1)
  %29 = tail call i32 @shot(i32 %27, i32 %17)
  %30 = add nsw i32 %29, 1
  %31 = icmp sgt i32 %28, %29
  %32 = select i1 %31, i32 %28, i32 %30
  br label %23
}

; Function Attrs: nofree nounwind sspstrong uwtable
define dso_local i32 @main() local_unnamed_addr #2 {
  %1 = tail call i32 (i8*, ...) @__isoc99_scanf(i8* getelementptr inbounds ([3 x i8], [3 x i8]* @.str, i64 0, i64 0), i32* nonnull @n)
  %2 = load i32, i32* @n, align 4, !tbaa !5
  %3 = icmp slt i32 %2, 1
  br i1 %3, label %12, label %4

4:                                                ; preds = %0, %4
  %5 = phi i64 [ %8, %4 ], [ 1, %0 ]
  %6 = getelementptr inbounds [30 x i32], [30 x i32]* @a, i64 0, i64 %5
  %7 = tail call i32 (i8*, ...) @__isoc99_scanf(i8* getelementptr inbounds ([3 x i8], [3 x i8]* @.str, i64 0, i64 0), i32* nonnull %6)
  %8 = add nuw nsw i64 %5, 1
  %9 = load i32, i32* @n, align 4, !tbaa !5
  %10 = sext i32 %9 to i64
  %11 = icmp slt i64 %5, %10
  br i1 %11, label %4, label %12, !llvm.loop !9

12:                                               ; preds = %4, %0
  %13 = tail call i32 @shot(i32 1, i32 9999)
  %14 = tail call i32 (i8*, ...) @printf(i8* nonnull dereferenceable(1) getelementptr inbounds ([3 x i8], [3 x i8]* @.str, i64 0, i64 0), i32 %13)
  ret i32 0
}

; Function Attrs: nofree nounwind
declare noundef i32 @__isoc99_scanf(i8* nocapture noundef readonly, ...) local_unnamed_addr #3

; Function Attrs: nofree nounwind
declare noundef i32 @printf(i8* nocapture noundef readonly, ...) local_unnamed_addr #3


!llvm.module.flags = !{!0, !1, !2, !3}
!llvm.ident = !{!4}

!0 = !{i32 1, !"wchar_size", i32 4}
!1 = !{i32 7, !"PIC Level", i32 2}
!2 = !{i32 7, !"PIE Level", i32 2}
!3 = !{i32 7, !"uwtable", i32 1}
!4 = !{!"clang version 13.0.0"}
!5 = !{!6, !6, i64 0}
!6 = !{!"int", !7, i64 0}
!7 = !{!"omnipotent char", !8, i64 0}
!8 = !{!"Simple C/C++ TBAA"}
!9 = distinct !{!9, !10}
!10 = !{!"llvm.loop.mustprogress"}
